; Function Attrs: mustprogress nounwind uwtable
define internal void @_ZN12_GLOBAL__N_115TextFileHandler11WriteBundleERN4llvm11raw_ostreamERNS1_12MemoryBufferE(ptr dead_on_unwind noalias nocapture writable writeonly sret(%"class.llvm::Error") align 8 %0, ptr nocapture nonnull readnone align 8 %1, ptr noundef nonnull align 8 dereferenceable(48) %2, ptr nocapture noundef nonnull readonly align 8 dereferenceable(24) %3) unnamed_addr #3 align 2 {
  %5 = getelementptr inbounds nuw i8, ptr %3, i64 8
  %6 = load ptr, ptr %5, align 8
  %7 = getelementptr inbounds nuw i8, ptr %3, i64 16
  %8 = load ptr, ptr %7, align 8
  %9 = ptrtoint ptr %8 to i64
  %10 = ptrtoint ptr %6 to i64
  %11 = sub i64 %9, %10
  %12 = getelementptr inbounds nuw i8, ptr %2, i64 24
  %13 = load ptr, ptr %12, align 8
  %14 = getelementptr inbounds nuw i8, ptr %2, i64 32
  %15 = load ptr, ptr %14, align 8
  %16 = ptrtoint ptr %13 to i64
  %17 = ptrtoint ptr %15 to i64
  %18 = sub i64 %16, %17
  %19 = icmp ugt i64 %11, %18
  br i1 %19, label %20, label %22

20:                                               ; preds = %4
  %21 = tail call noundef nonnull align 8 dereferenceable(48) ptr @_ZN4llvm11raw_ostream5writeEPKcm(ptr noundef nonnull align 8 dereferenceable(48) %2, ptr noundef %6, i64 noundef %11) #24
  br label %_ZN4llvm12ErrorSuccessD2Ev.exit

22:                                               ; preds = %4
  %.not.i = icmp eq ptr %8, %6
  br i1 %.not.i, label %_ZN4llvm12ErrorSuccessD2Ev.exit, label %23

23:                                               ; preds = %22
  tail call void @llvm.memcpy.p0.p0.i64(ptr align 1 %15, ptr align 1 %6, i64 %11, i1 false)
  %24 = load ptr, ptr %14, align 8
  %25 = getelementptr inbounds i8, ptr %24, i64 %11
  store ptr %25, ptr %14, align 8
  br label %_ZN4llvm12ErrorSuccessD2Ev.exit

_ZN4llvm12ErrorSuccessD2Ev.exit:                  ; preds = %23, %22, %20
  store ptr null, ptr %0, align 8
  ret void
}